; Function Attrs: nofree norecurse nosync nounwind memory(readwrite, inaccessiblemem: none) uwtable
define i32 @ff_vvc_new_palette_entries(ptr noundef readonly captures(none) %0, i32 noundef %1) local_unnamed_addr #3 {
  %3 = getelementptr inbounds nuw i8, ptr %0, i64 4580560
  %4 = load ptr, ptr %3, align 16, !tbaa !67
  %5 = getelementptr inbounds nuw i8, ptr %4, i64 2672
  %6 = icmp sgt i32 %1, 0
  br i1 %6, label %.lr.ph.i, label %fixed_length_decode.exit

.lr.ph.i:                                         ; preds = %2
  %7 = getelementptr inbounds nuw i8, ptr %4, i64 2688
  %8 = getelementptr inbounds nuw i8, ptr %4, i64 2696
  %9 = getelementptr inbounds nuw i8, ptr %4, i64 2676
  %10 = load i32, ptr %9, align 4, !tbaa !100
  %11 = shl i32 %10, 17
  %.promoted.i = load i32, ptr %5, align 8, !tbaa !70
  br label %12

12:                                               ; preds = %get_cabac_bypass.exit.i, %.lr.ph.i
  %13 = phi i32 [ %.promoted.i, %.lr.ph.i ], [ %37, %get_cabac_bypass.exit.i ]
  %.07.i = phi i32 [ 0, %.lr.ph.i ], [ %39, %get_cabac_bypass.exit.i ]
  %.056.i = phi i32 [ 0, %.lr.ph.i ], [ %38, %get_cabac_bypass.exit.i ]
  %14 = shl i32 %.056.i, 1
  %15 = shl nsw i32 %13, 1
  store i32 %15, ptr %5, align 8, !tbaa !70
  %16 = and i32 %13, 32767
  %.not.i.i = icmp eq i32 %16, 0
  br i1 %.not.i.i, label %17, label %refill.exit.i.i

17:                                               ; preds = %12
  %18 = load ptr, ptr %7, align 8, !tbaa !68
  %19 = load i8, ptr %18, align 1, !tbaa !97
  %20 = zext i8 %19 to i32
  %21 = shl nuw nsw i32 %20, 9
  %22 = getelementptr inbounds nuw i8, ptr %18, i64 1
  %23 = load i8, ptr %22, align 1, !tbaa !97
  %24 = zext i8 %23 to i32
  %25 = shl nuw nsw i32 %24, 1
  %26 = or disjoint i32 %25, %21
  %27 = add i32 %15, -65535
  %28 = add i32 %27, %26
  store i32 %28, ptr %5, align 8, !tbaa !70
  %29 = load ptr, ptr %8, align 8, !tbaa !71
  %30 = icmp ult ptr %18, %29
  br i1 %30, label %31, label %refill.exit.i.i

31:                                               ; preds = %17
  %32 = getelementptr inbounds nuw i8, ptr %18, i64 2
  store ptr %32, ptr %7, align 8, !tbaa !68
  br label %refill.exit.i.i

refill.exit.i.i:                                  ; preds = %31, %17, %12
  %33 = phi i32 [ %28, %31 ], [ %28, %17 ], [ %15, %12 ]
  %34 = icmp slt i32 %33, %11
  br i1 %34, label %get_cabac_bypass.exit.i, label %35

35:                                               ; preds = %refill.exit.i.i
  %36 = sub nsw i32 %33, %11
  store i32 %36, ptr %5, align 8, !tbaa !70
  br label %get_cabac_bypass.exit.i

get_cabac_bypass.exit.i:                          ; preds = %35, %refill.exit.i.i
  %37 = phi i32 [ %36, %35 ], [ %33, %refill.exit.i.i ]
  %.0.i.i = phi i32 [ 1, %35 ], [ 0, %refill.exit.i.i ]
  %38 = or disjoint i32 %.0.i.i, %14
  %39 = add nuw nsw i32 %.07.i, 1
  %exitcond.not.i = icmp eq i32 %39, %1
  br i1 %exitcond.not.i, label %fixed_length_decode.exit, label %12, !llvm.loop !101

fixed_length_decode.exit:                         ; preds = %get_cabac_bypass.exit.i, %2
  %.05.lcssa.i = phi i32 [ 0, %2 ], [ %38, %get_cabac_bypass.exit.i ]
  ret i32 %.05.lcssa.i
}